; Function Attrs: nounwind uwtable
define internal void @ff_tx_rdft_r2r_mod2_double_c(ptr noundef readonly captures(none) %0, ptr noundef %1, ptr noundef %2, i64 %3) #3 {
  %5 = load i32, ptr %0, align 8, !tbaa !16
  %6 = ashr i32 %5, 1
  %7 = ashr i32 %5, 2
  %8 = add nsw i32 %5, 3
  %9 = ashr i32 %8, 2
  %10 = getelementptr inbounds nuw i8, ptr %0, i64 16
  %11 = load ptr, ptr %10, align 8, !tbaa !26
  %12 = getelementptr inbounds nuw i8, ptr %11, i64 64
  %13 = sext i32 %9 to i64
  %14 = getelementptr inbounds double, ptr %12, i64 %13
  %15 = getelementptr inbounds nuw i8, ptr %0, i64 40
  %16 = load ptr, ptr %15, align 8, !tbaa !4
  %17 = getelementptr inbounds nuw i8, ptr %0, i64 32
  %18 = load ptr, ptr %17, align 8, !tbaa !57
  tail call void %16(ptr noundef %18, ptr noundef %1, ptr noundef %2, i64 noundef 16) #16
  %19 = load double, ptr %1, align 8, !tbaa !50
  %20 = getelementptr inbounds nuw i8, ptr %1, i64 8
  %21 = load double, ptr %20, align 8, !tbaa !52
  %22 = fadd nsz double %19, %21
  store double %22, ptr %1, align 8, !tbaa !50
  %23 = load double, ptr %11, align 8, !tbaa !27
  %24 = fmul nsz double %22, %23
  store double %24, ptr %1, align 8, !tbaa !50
  %25 = getelementptr inbounds nuw i8, ptr %11, i64 8
  %26 = load double, ptr %25, align 8, !tbaa !27
  %27 = getelementptr inbounds nuw i8, ptr %11, i64 16
  %28 = load double, ptr %27, align 8, !tbaa !27
  %29 = sext i32 %7 to i64
  %30 = getelementptr inbounds %struct.AVComplexDouble, ptr %1, i64 %29
  %31 = load double, ptr %30, align 8, !tbaa !50
  %32 = fmul nsz double %28, %31
  store double %32, ptr %30, align 8, !tbaa !50
  %.sroa.525.0..sroa_idx = getelementptr inbounds nuw i8, ptr %30, i64 8
  %.sroa.525.0.copyload = load double, ptr %.sroa.525.0..sroa_idx, align 8, !tbaa !27
  %33 = add nsw i32 %7, 1
  %34 = sext i32 %33 to i64
  %35 = getelementptr inbounds %struct.AVComplexDouble, ptr %1, i64 %34
  %.sroa.020.0.copyload = load double, ptr %35, align 8, !tbaa !27
  %.sroa.522.0..sroa_idx = getelementptr inbounds nuw i8, ptr %35, i64 8
  %.sroa.522.0.copyload = load double, ptr %.sroa.522.0..sroa_idx, align 8, !tbaa !27
  %36 = getelementptr inbounds nuw i8, ptr %11, i64 32
  %37 = load double, ptr %36, align 8, !tbaa !27
  %38 = getelementptr inbounds nuw i8, ptr %11, i64 48
  %39 = load double, ptr %38, align 8, !tbaa !27
  %40 = getelementptr inbounds nuw i8, ptr %11, i64 56
  %41 = load double, ptr %40, align 8, !tbaa !27
  %42 = getelementptr inbounds double, ptr %12, i64 %29
  %43 = load double, ptr %42, align 8, !tbaa !27
  %44 = getelementptr inbounds double, ptr %14, i64 %29
  %45 = load double, ptr %44, align 8, !tbaa !27
  %.not93 = icmp slt i32 %7, 1
  br i1 %.not93, label %.preheader.._crit_edge_crit_edge, label %.lr.ph.preheader

.lr.ph.preheader:                                 ; preds = %4
  %46 = sext i32 %6 to i64
  %47 = zext nneg i32 %5 to i64
  %wide.trip.count = zext nneg i32 %33 to i64
  br label %.lr.ph

.preheader:                                       ; preds = %.lr.ph
  %.not = icmp eq i32 %7, 1
  br i1 %.not, label %.preheader.._crit_edge_crit_edge, label %.lr.ph96.preheader

.preheader.._crit_edge_crit_edge:                 ; preds = %4, %.preheader
  %.pre = sext i32 %6 to i64
  br label %._crit_edge

.lr.ph96.preheader:                               ; preds = %.preheader
  %48 = zext nneg i32 %5 to i64
  %49 = sext i32 %6 to i64
  %wide.trip.count102 = zext nneg i32 %7 to i64
  br label %.lr.ph96

.lr.ph:                                           ; preds = %.lr.ph.preheader, %.lr.ph
  %indvars.iv = phi i64 [ 1, %.lr.ph.preheader ], [ %indvars.iv.next, %.lr.ph ]
  %50 = getelementptr inbounds nuw %struct.AVComplexDouble, ptr %1, i64 %indvars.iv
  %.sroa.05.0.copyload = load double, ptr %50, align 8, !tbaa !27
  %.sroa.57.0..sroa_idx = getelementptr inbounds nuw i8, ptr %50, i64 8
  %.sroa.57.0.copyload = load double, ptr %.sroa.57.0..sroa_idx, align 8, !tbaa !27
  %51 = sub nsw i64 %46, %indvars.iv
  %52 = getelementptr inbounds %struct.AVComplexDouble, ptr %1, i64 %51
  %.sroa.0.0.copyload = load double, ptr %52, align 8, !tbaa !27
  %.sroa.5.0..sroa_idx = getelementptr inbounds nuw i8, ptr %52, i64 8
  %.sroa.5.0.copyload = load double, ptr %.sroa.5.0..sroa_idx, align 8, !tbaa !27
  %53 = load double, ptr %36, align 8, !tbaa !27
  %54 = fadd nsz double %.sroa.05.0.copyload, %.sroa.0.0.copyload
  %55 = fmul nsz double %54, %53
  %56 = load double, ptr %38, align 8, !tbaa !27
  %57 = fadd nsz double %.sroa.57.0.copyload, %.sroa.5.0.copyload
  %58 = fmul nsz double %57, %56
  %59 = load double, ptr %40, align 8, !tbaa !27
  %60 = fsub nsz double %.sroa.05.0.copyload, %.sroa.0.0.copyload
  %61 = fmul nsz double %60, %59
  %62 = getelementptr inbounds nuw double, ptr %12, i64 %indvars.iv
  %63 = load double, ptr %62, align 8, !tbaa !27
  %64 = getelementptr inbounds nuw double, ptr %14, i64 %indvars.iv
  %65 = load double, ptr %64, align 8, !tbaa !27
  %66 = fneg nsz double %65
  %67 = fmul nsz double %61, %66
  %68 = tail call nsz double @llvm.fmuladd.f64(double %58, double %63, double %67)
  %69 = fadd nsz double %55, %68
  %70 = getelementptr inbounds nuw double, ptr %1, i64 %indvars.iv
  store double %69, ptr %70, align 8, !tbaa !27
  %71 = fsub nsz double %55, %68
  %72 = sub nsw i64 %47, %indvars.iv
  %73 = getelementptr inbounds double, ptr %1, i64 %72
  store double %71, ptr %73, align 8, !tbaa !27
  %indvars.iv.next = add nuw nsw i64 %indvars.iv, 1
  %exitcond.not = icmp eq i64 %indvars.iv.next, %wide.trip.count
  br i1 %exitcond.not, label %.preheader, label %.lr.ph, !llvm.loop !143

._crit_edge:                                      ; preds = %.lr.ph96, %.preheader.._crit_edge_crit_edge
  %.pre-phi = phi i64 [ %.pre, %.preheader.._crit_edge_crit_edge ], [ %49, %.lr.ph96 ]
  %74 = fadd nsz double %32, %.sroa.020.0.copyload
  %75 = fmul nsz double %74, %37
  %76 = fadd nsz double %.sroa.525.0.copyload, %.sroa.522.0.copyload
  %77 = fmul nsz double %76, %39
  %78 = fsub nsz double %32, %.sroa.020.0.copyload
  %79 = fmul nsz double %78, %41
  %80 = fneg nsz double %45
  %81 = fmul nsz double %79, %80
  %82 = tail call nsz double @llvm.fmuladd.f64(double %77, double %43, double %81)
  %83 = fsub nsz double %75, %82
  %84 = fsub nsz double %19, %21
  %85 = fmul nsz double %84, %26
  %86 = getelementptr inbounds double, ptr %1, i64 %.pre-phi
  store double %85, ptr %86, align 8, !tbaa !27
  %87 = getelementptr inbounds nuw i8, ptr %11, i64 40
  %88 = load double, ptr %87, align 8, !tbaa !27
  %89 = fmul nsz double %83, %88
  %90 = getelementptr inbounds double, ptr %1, i64 %34
  store double %89, ptr %90, align 8, !tbaa !27
  ret void

.lr.ph96:                                         ; preds = %.lr.ph96.preheader, %.lr.ph96
  %indvars.iv99 = phi i64 [ 1, %.lr.ph96.preheader ], [ %indvars.iv.next100, %.lr.ph96 ]
  %91 = sub nsw i64 %48, %indvars.iv99
  %92 = getelementptr inbounds double, ptr %1, i64 %91
  %93 = load double, ptr %92, align 8, !tbaa !27
  %94 = sub nsw i64 %49, %indvars.iv99
  %95 = getelementptr inbounds double, ptr %1, i64 %94
  store double %93, ptr %95, align 8, !tbaa !27
  %indvars.iv.next100 = add nuw nsw i64 %indvars.iv99, 1
  %exitcond103.not = icmp eq i64 %indvars.iv.next100, %wide.trip.count102
  br i1 %exitcond103.not, label %._crit_edge, label %.lr.ph96, !llvm.loop !144
}